target datalayout = "e-m:e-p270:32:32-p271:32:32-p272:64:64-i64:64-i128:128-f80:128-n8:16:32:64-S128"
target triple = "x86_64-pc-linux-gnu"

%struct.ossl_quic_frame_ack_st = type { ptr, i64, %struct.OSSL_TIME, i64, i64, i64, i8 }
%struct.OSSL_TIME = type { i64 }
%struct.ossl_quic_ack_range_st = type { i64, i64 }

; Function Attrs: inlinehint nounwind uwtable
define internal i64 @ossl_ticks2time(i64 noundef %0) #3 {
  %2 = alloca %struct.OSSL_TIME, align 8
  %3 = alloca i64, align 8
  store i64 %0, ptr %3, align 8, !tbaa !8
  %4 = load i64, ptr %3, align 8, !tbaa !8
  %5 = getelementptr inbounds nuw %struct.OSSL_TIME, ptr %2, i32 0, i32 0
  store i64 %4, ptr %5, align 8, !tbaa !29
  %6 = getelementptr inbounds nuw %struct.OSSL_TIME, ptr %2, i32 0, i32 0
  %7 = load i64, ptr %6, align 8
  ret i64 %7
}

; Function Attrs: inlinehint nounwind uwtable
define internal i64 @ossl_time_zero() #3 {
  %1 = alloca %struct.OSSL_TIME, align 8
  %2 = call i64 @ossl_ticks2time(i64 noundef 0)
  %3 = getelementptr inbounds nuw %struct.OSSL_TIME, ptr %1, i32 0, i32 0
  store i64 %2, ptr %3, align 8
  %4 = getelementptr inbounds nuw %struct.OSSL_TIME, ptr %1, i32 0, i32 0
  %5 = load i64, ptr %4, align 8
  ret i64 %5
}

; Function Attrs: inlinehint nounwind uwtable
define internal i64 @safe_div_time(i64 noundef %0, i64 noundef %1, ptr noundef %2) #3 {
  %4 = alloca i64, align 8
  %5 = alloca i64, align 8
  %6 = alloca i64, align 8
  %7 = alloca ptr, align 8
  store i64 %0, ptr %5, align 8, !tbaa !8
  store i64 %1, ptr %6, align 8, !tbaa !8
  store ptr %2, ptr %7, align 8, !tbaa !78
  %8 = load i64, ptr %6, align 8, !tbaa !8
  %9 = icmp ne i64 %8, 0
  br i1 %9, label %10, label %14

10:                                               ; preds = %3
  %11 = load i64, ptr %5, align 8, !tbaa !8
  %12 = load i64, ptr %6, align 8, !tbaa !8
  %13 = udiv i64 %11, %12
  store i64 %13, ptr %4, align 8
  br label %18

14:                                               ; preds = %3
  %15 = load ptr, ptr %7, align 8, !tbaa !78
  %16 = load i32, ptr %15, align 4, !tbaa !23
  %17 = or i32 %16, 1
  store i32 %17, ptr %15, align 4, !tbaa !23
  store i64 -1, ptr %4, align 8
  br label %18

18:                                               ; preds = %14, %10
  %19 = load i64, ptr %4, align 8
  ret i64 %19
}

; Function Attrs: nounwind uwtable
define internal i32 @encode_frame_hdr(ptr noundef %0, i64 noundef %1) #0 {
  %3 = alloca ptr, align 8
  %4 = alloca i64, align 8
  store ptr %0, ptr %3, align 8, !tbaa !21
  store i64 %1, ptr %4, align 8, !tbaa !8
  %5 = load ptr, ptr %3, align 8, !tbaa !21
  %6 = load i64, ptr %4, align 8, !tbaa !8
  %7 = call i32 @WPACKET_quic_write_vlint(ptr noundef %5, i64 noundef %6)
  ret i32 %7
}

; Function Attrs: inlinehint nounwind uwtable
define internal i64 @ossl_time2ticks(i64 %0) #3 {
  %2 = alloca %struct.OSSL_TIME, align 8
  %3 = getelementptr inbounds nuw %struct.OSSL_TIME, ptr %2, i32 0, i32 0
  store i64 %0, ptr %3, align 8
  %4 = getelementptr inbounds nuw %struct.OSSL_TIME, ptr %2, i32 0, i32 0
  %5 = load i64, ptr %4, align 8, !tbaa !29
  ret i64 %5
}

; Function Attrs: inlinehint nounwind uwtable
define internal i64 @ossl_time_divide(i64 %0, i64 noundef %1) #3 {
  %3 = alloca %struct.OSSL_TIME, align 8
  %4 = alloca %struct.OSSL_TIME, align 8
  %5 = alloca i64, align 8
  %6 = alloca %struct.OSSL_TIME, align 8
  %7 = alloca i32, align 4
  %8 = getelementptr inbounds nuw %struct.OSSL_TIME, ptr %4, i32 0, i32 0
  store i64 %0, ptr %8, align 8
  store i64 %1, ptr %5, align 8, !tbaa !8
  call void @llvm.lifetime.start.p0(i64 8, ptr %6) #7
  call void @llvm.lifetime.start.p0(i64 4, ptr %7) #7
  store i32 0, ptr %7, align 4, !tbaa !23
  %9 = getelementptr inbounds nuw %struct.OSSL_TIME, ptr %4, i32 0, i32 0
  %10 = load i64, ptr %9, align 8, !tbaa !29
  %11 = load i64, ptr %5, align 8, !tbaa !8
  %12 = call i64 @safe_div_time(i64 noundef %10, i64 noundef %11, ptr noundef %7)
  %13 = getelementptr inbounds nuw %struct.OSSL_TIME, ptr %6, i32 0, i32 0
  store i64 %12, ptr %13, align 8, !tbaa !29
  %14 = load i32, ptr %7, align 4, !tbaa !23
  %15 = icmp ne i32 %14, 0
  br i1 %15, label %16, label %19

16:                                               ; preds = %2
  %17 = call i64 @ossl_time_zero()
  %18 = getelementptr inbounds nuw %struct.OSSL_TIME, ptr %3, i32 0, i32 0
  store i64 %17, ptr %18, align 8
  br label %20

19:                                               ; preds = %2
  call void @llvm.memcpy.p0.p0.i64(ptr align 8 %3, ptr align 8 %6, i64 8, i1 false), !tbaa.struct !24
  br label %20

20:                                               ; preds = %19, %16
  call void @llvm.lifetime.end.p0(i64 4, ptr %7) #7
  call void @llvm.lifetime.end.p0(i64 8, ptr %6) #7
  %21 = getelementptr inbounds nuw %struct.OSSL_TIME, ptr %3, i32 0, i32 0
  %22 = load i64, ptr %21, align 8
  ret i64 %22
}

; Function Attrs: nounwind uwtable
define i32 @ossl_quic_wire_encode_frame_ack(ptr noundef %0, i32 noundef %1, ptr noundef %2) #0 {
  %4 = alloca i32, align 4
  %5 = alloca ptr, align 8
  %6 = alloca i32, align 4
  %7 = alloca ptr, align 8
  %8 = alloca i64, align 8
  %9 = alloca i64, align 8
  %10 = alloca i64, align 8
  %11 = alloca i64, align 8
  %12 = alloca i64, align 8
  %13 = alloca i64, align 8
  %14 = alloca %struct.OSSL_TIME, align 8
  %15 = alloca i32, align 4
  %16 = alloca %struct.OSSL_TIME, align 8
  %17 = alloca %struct.OSSL_TIME, align 8
  %18 = alloca i64, align 8
  %19 = alloca i64, align 8
  store ptr %0, ptr %5, align 8, !tbaa !21
  store i32 %1, ptr %6, align 4, !tbaa !23
  store ptr %2, ptr %7, align 8, !tbaa !3
  call void @llvm.lifetime.start.p0(i64 8, ptr %8) #7
  %20 = load ptr, ptr %7, align 8, !tbaa !3
  %21 = getelementptr inbounds nuw %struct.ossl_quic_frame_ack_st, ptr %20, i32 0, i32 6
  %22 = load i8, ptr %21, align 8
  %23 = and i8 %22, 1
  %24 = zext i8 %23 to i32
  %25 = icmp ne i32 %24, 0
  %26 = select i1 %25, i32 3, i32 2
  %27 = sext i32 %26 to i64
  store i64 %27, ptr %8, align 8, !tbaa !8
  call void @llvm.lifetime.start.p0(i64 8, ptr %9) #7
  call void @llvm.lifetime.start.p0(i64 8, ptr %10) #7
  call void @llvm.lifetime.start.p0(i64 8, ptr %11) #7
  call void @llvm.lifetime.start.p0(i64 8, ptr %12) #7
  call void @llvm.lifetime.start.p0(i64 8, ptr %13) #7
  %28 = load ptr, ptr %7, align 8, !tbaa !3
  %29 = getelementptr inbounds nuw %struct.ossl_quic_frame_ack_st, ptr %28, i32 0, i32 1
  %30 = load i64, ptr %29, align 8, !tbaa !10
  store i64 %30, ptr %13, align 8, !tbaa !8
  call void @llvm.lifetime.start.p0(i64 8, ptr %14) #7
  %31 = load i64, ptr %13, align 8, !tbaa !8
  %32 = icmp eq i64 %31, 0
  br i1 %32, label %33, label %34

33:                                               ; preds = %3
  store i32 0, ptr %4, align 4
  store i32 1, ptr %15, align 4
  br label %182

34:                                               ; preds = %3
  call void @llvm.lifetime.start.p0(i64 8, ptr %16) #7
  %35 = load ptr, ptr %7, align 8, !tbaa !3
  %36 = getelementptr inbounds nuw %struct.ossl_quic_frame_ack_st, ptr %35, i32 0, i32 2
  %37 = getelementptr inbounds nuw %struct.OSSL_TIME, ptr %36, i32 0, i32 0
  %38 = load i64, ptr %37, align 8
  %39 = call i64 @ossl_time_divide(i64 %38, i64 noundef 1000)
  %40 = getelementptr inbounds nuw %struct.OSSL_TIME, ptr %17, i32 0, i32 0
  store i64 %39, ptr %40, align 8
  %41 = load i32, ptr %6, align 4, !tbaa !23
  %42 = zext i32 %41 to i64
  %43 = shl i64 1, %42
  %44 = getelementptr inbounds nuw %struct.OSSL_TIME, ptr %17, i32 0, i32 0
  %45 = load i64, ptr %44, align 8
  %46 = call i64 @ossl_time_divide(i64 %45, i64 noundef %43)
  %47 = getelementptr inbounds nuw %struct.OSSL_TIME, ptr %16, i32 0, i32 0
  store i64 %46, ptr %47, align 8
  call void @llvm.memcpy.p0.p0.i64(ptr align 8 %14, ptr align 8 %16, i64 8, i1 false), !tbaa.struct !24
  call void @llvm.lifetime.end.p0(i64 8, ptr %16) #7
  %48 = getelementptr inbounds nuw %struct.OSSL_TIME, ptr %14, i32 0, i32 0
  %49 = load i64, ptr %48, align 8
  %50 = call i64 @ossl_time2ticks(i64 %49)
  store i64 %50, ptr %11, align 8, !tbaa !8
  %51 = load ptr, ptr %7, align 8, !tbaa !3
  %52 = getelementptr inbounds nuw %struct.ossl_quic_frame_ack_st, ptr %51, i32 0, i32 0
  %53 = load ptr, ptr %52, align 8, !tbaa !15
  %54 = getelementptr inbounds %struct.ossl_quic_ack_range_st, ptr %53, i64 0
  %55 = getelementptr inbounds nuw %struct.ossl_quic_ack_range_st, ptr %54, i32 0, i32 1
  %56 = load i64, ptr %55, align 8, !tbaa !18
  store i64 %56, ptr %9, align 8, !tbaa !8
  %57 = load ptr, ptr %7, align 8, !tbaa !3
  %58 = getelementptr inbounds nuw %struct.ossl_quic_frame_ack_st, ptr %57, i32 0, i32 0
  %59 = load ptr, ptr %58, align 8, !tbaa !15
  %60 = getelementptr inbounds %struct.ossl_quic_ack_range_st, ptr %59, i64 0
  %61 = getelementptr inbounds nuw %struct.ossl_quic_ack_range_st, ptr %60, i32 0, i32 1
  %62 = load i64, ptr %61, align 8, !tbaa !18
  %63 = load ptr, ptr %7, align 8, !tbaa !3
  %64 = getelementptr inbounds nuw %struct.ossl_quic_frame_ack_st, ptr %63, i32 0, i32 0
  %65 = load ptr, ptr %64, align 8, !tbaa !15
  %66 = getelementptr inbounds %struct.ossl_quic_ack_range_st, ptr %65, i64 0
  %67 = getelementptr inbounds nuw %struct.ossl_quic_ack_range_st, ptr %66, i32 0, i32 0
  %68 = load i64, ptr %67, align 8, !tbaa !16
  %69 = sub i64 %62, %68
  store i64 %69, ptr %10, align 8, !tbaa !8
  %70 = load ptr, ptr %5, align 8, !tbaa !21
  %71 = load i64, ptr %8, align 8, !tbaa !8
  %72 = call i32 @encode_frame_hdr(ptr noundef %70, i64 noundef %71)
  %73 = icmp ne i32 %72, 0
  br i1 %73, label %74, label %95

74:                                               ; preds = %34
  %75 = load ptr, ptr %5, align 8, !tbaa !21
  %76 = load i64, ptr %9, align 8, !tbaa !8
  %77 = call i32 @WPACKET_quic_write_vlint(ptr noundef %75, i64 noundef %76)
  %78 = icmp ne i32 %77, 0
  br i1 %78, label %79, label %95

79:                                               ; preds = %74
  %80 = load ptr, ptr %5, align 8, !tbaa !21
  %81 = load i64, ptr %11, align 8, !tbaa !8
  %82 = call i32 @WPACKET_quic_write_vlint(ptr noundef %80, i64 noundef %81)
  %83 = icmp ne i32 %82, 0
  br i1 %83, label %84, label %95

84:                                               ; preds = %79
  %85 = load ptr, ptr %5, align 8, !tbaa !21
  %86 = load i64, ptr %13, align 8, !tbaa !8
  %87 = sub i64 %86, 1
  %88 = call i32 @WPACKET_quic_write_vlint(ptr noundef %85, i64 noundef %87)
  %89 = icmp ne i32 %88, 0
  br i1 %89, label %90, label %95

90:                                               ; preds = %84
  %91 = load ptr, ptr %5, align 8, !tbaa !21
  %92 = load i64, ptr %10, align 8, !tbaa !8
  %93 = call i32 @WPACKET_quic_write_vlint(ptr noundef %91, i64 noundef %92)
  %94 = icmp ne i32 %93, 0
  br i1 %94, label %96, label %95

95:                                               ; preds = %90, %84, %79, %74, %34
  store i32 0, ptr %4, align 4
  store i32 1, ptr %15, align 4
  br label %182

96:                                               ; preds = %90
  store i64 1, ptr %12, align 8, !tbaa !8
  br label %97

97:                                               ; preds = %148, %96
  %98 = load i64, ptr %12, align 8, !tbaa !8
  %99 = load i64, ptr %13, align 8, !tbaa !8
  %100 = icmp ult i64 %98, %99
  br i1 %100, label %101, label %151

101:                                              ; preds = %97
  call void @llvm.lifetime.start.p0(i64 8, ptr %18) #7
  call void @llvm.lifetime.start.p0(i64 8, ptr %19) #7
  %102 = load ptr, ptr %7, align 8, !tbaa !3
  %103 = getelementptr inbounds nuw %struct.ossl_quic_frame_ack_st, ptr %102, i32 0, i32 0
  %104 = load ptr, ptr %103, align 8, !tbaa !15
  %105 = load i64, ptr %12, align 8, !tbaa !8
  %106 = sub i64 %105, 1
  %107 = getelementptr inbounds nuw %struct.ossl_quic_ack_range_st, ptr %104, i64 %106
  %108 = getelementptr inbounds nuw %struct.ossl_quic_ack_range_st, ptr %107, i32 0, i32 0
  %109 = load i64, ptr %108, align 8, !tbaa !16
  %110 = load ptr, ptr %7, align 8, !tbaa !3
  %111 = getelementptr inbounds nuw %struct.ossl_quic_frame_ack_st, ptr %110, i32 0, i32 0
  %112 = load ptr, ptr %111, align 8, !tbaa !15
  %113 = load i64, ptr %12, align 8, !tbaa !8
  %114 = getelementptr inbounds nuw %struct.ossl_quic_ack_range_st, ptr %112, i64 %113
  %115 = getelementptr inbounds nuw %struct.ossl_quic_ack_range_st, ptr %114, i32 0, i32 1
  %116 = load i64, ptr %115, align 8, !tbaa !18
  %117 = sub i64 %109, %116
  %118 = sub i64 %117, 2
  store i64 %118, ptr %18, align 8, !tbaa !8
  %119 = load ptr, ptr %7, align 8, !tbaa !3
  %120 = getelementptr inbounds nuw %struct.ossl_quic_frame_ack_st, ptr %119, i32 0, i32 0
  %121 = load ptr, ptr %120, align 8, !tbaa !15
  %122 = load i64, ptr %12, align 8, !tbaa !8
  %123 = getelementptr inbounds nuw %struct.ossl_quic_ack_range_st, ptr %121, i64 %122
  %124 = getelementptr inbounds nuw %struct.ossl_quic_ack_range_st, ptr %123, i32 0, i32 1
  %125 = load i64, ptr %124, align 8, !tbaa !18
  %126 = load ptr, ptr %7, align 8, !tbaa !3
  %127 = getelementptr inbounds nuw %struct.ossl_quic_frame_ack_st, ptr %126, i32 0, i32 0
  %128 = load ptr, ptr %127, align 8, !tbaa !15
  %129 = load i64, ptr %12, align 8, !tbaa !8
  %130 = getelementptr inbounds nuw %struct.ossl_quic_ack_range_st, ptr %128, i64 %129
  %131 = getelementptr inbounds nuw %struct.ossl_quic_ack_range_st, ptr %130, i32 0, i32 0
  %132 = load i64, ptr %131, align 8, !tbaa !16
  %133 = sub i64 %125, %132
  store i64 %133, ptr %19, align 8, !tbaa !8
  %134 = load ptr, ptr %5, align 8, !tbaa !21
  %135 = load i64, ptr %18, align 8, !tbaa !8
  %136 = call i32 @WPACKET_quic_write_vlint(ptr noundef %134, i64 noundef %135)
  %137 = icmp ne i32 %136, 0
  br i1 %137, label %138, label %143

138:                                              ; preds = %101
  %139 = load ptr, ptr %5, align 8, !tbaa !21
  %140 = load i64, ptr %19, align 8, !tbaa !8
  %141 = call i32 @WPACKET_quic_write_vlint(ptr noundef %139, i64 noundef %140)
  %142 = icmp ne i32 %141, 0
  br i1 %142, label %144, label %143

143:                                              ; preds = %138, %101
  store i32 0, ptr %4, align 4
  store i32 1, ptr %15, align 4
  br label %145

144:                                              ; preds = %138
  store i32 0, ptr %15, align 4
  br label %145

145:                                              ; preds = %144, %143
  call void @llvm.lifetime.end.p0(i64 8, ptr %19) #7
  call void @llvm.lifetime.end.p0(i64 8, ptr %18) #7
  %146 = load i32, ptr %15, align 4
  switch i32 %146, label %182 [
    i32 0, label %147
  ]

147:                                              ; preds = %145
  br label %148

148:                                              ; preds = %147
  %149 = load i64, ptr %12, align 8, !tbaa !8
  %150 = add i64 %149, 1
  store i64 %150, ptr %12, align 8, !tbaa !8
  br label %97, !llvm.loop !25

151:                                              ; preds = %97
  %152 = load ptr, ptr %7, align 8, !tbaa !3
  %153 = getelementptr inbounds nuw %struct.ossl_quic_frame_ack_st, ptr %152, i32 0, i32 6
  %154 = load i8, ptr %153, align 8
  %155 = and i8 %154, 1
  %156 = zext i8 %155 to i32
  %157 = icmp ne i32 %156, 0
  br i1 %157, label %158, label %181

158:                                              ; preds = %151
  %159 = load ptr, ptr %5, align 8, !tbaa !21
  %160 = load ptr, ptr %7, align 8, !tbaa !3
  %161 = getelementptr inbounds nuw %struct.ossl_quic_frame_ack_st, ptr %160, i32 0, i32 3
  %162 = load i64, ptr %161, align 8, !tbaa !26
  %163 = call i32 @WPACKET_quic_write_vlint(ptr noundef %159, i64 noundef %162)
  %164 = icmp ne i32 %163, 0
  br i1 %164, label %165, label %179

165:                                              ; preds = %158
  %166 = load ptr, ptr %5, align 8, !tbaa !21
  %167 = load ptr, ptr %7, align 8, !tbaa !3
  %168 = getelementptr inbounds nuw %struct.ossl_quic_frame_ack_st, ptr %167, i32 0, i32 4
  %169 = load i64, ptr %168, align 8, !tbaa !27
  %170 = call i32 @WPACKET_quic_write_vlint(ptr noundef %166, i64 noundef %169)
  %171 = icmp ne i32 %170, 0
  br i1 %171, label %172, label %179

172:                                              ; preds = %165
  %173 = load ptr, ptr %5, align 8, !tbaa !21
  %174 = load ptr, ptr %7, align 8, !tbaa !3
  %175 = getelementptr inbounds nuw %struct.ossl_quic_frame_ack_st, ptr %174, i32 0, i32 5
  %176 = load i64, ptr %175, align 8, !tbaa !28
  %177 = call i32 @WPACKET_quic_write_vlint(ptr noundef %173, i64 noundef %176)
  %178 = icmp ne i32 %177, 0
  br i1 %178, label %180, label %179

179:                                              ; preds = %172, %165, %158
  store i32 0, ptr %4, align 4
  store i32 1, ptr %15, align 4
  br label %182

180:                                              ; preds = %172
  br label %181

181:                                              ; preds = %180, %151
  store i32 1, ptr %4, align 4
  store i32 1, ptr %15, align 4
  br label %182

182:                                              ; preds = %181, %179, %145, %95, %33
  call void @llvm.lifetime.end.p0(i64 8, ptr %14) #7
  call void @llvm.lifetime.end.p0(i64 8, ptr %13) #7
  call void @llvm.lifetime.end.p0(i64 8, ptr %12) #7
  call void @llvm.lifetime.end.p0(i64 8, ptr %11) #7
  call void @llvm.lifetime.end.p0(i64 8, ptr %10) #7
  call void @llvm.lifetime.end.p0(i64 8, ptr %9) #7
  call void @llvm.lifetime.end.p0(i64 8, ptr %8) #7
  %183 = load i32, ptr %4, align 4
  ret i32 %183
}