; Function Attrs: nounwind uwtable
define range(i32 0, 2) i32 @ossl_quic_wire_encode_frame_ack(ptr noundef %0, i32 noundef %1, ptr noundef readonly captures(none) %2) local_unnamed_addr #2 {
  %4 = getelementptr inbounds nuw i8, ptr %2, i64 48
  %5 = getelementptr inbounds nuw i8, ptr %2, i64 8
  %6 = load i64, ptr %5, align 8, !tbaa !3
  %7 = icmp eq i64 %6, 0
  br i1 %7, label %.loopexit, label %8

8:                                                ; preds = %3
  %9 = load i8, ptr %4, align 8
  %10 = and i8 %9, 1
  %.not = icmp eq i8 %10, 0
  %11 = select i1 %.not, i64 2, i64 3
  %12 = getelementptr inbounds nuw i8, ptr %2, i64 16
  %13 = load i64, ptr %12, align 8
  %14 = udiv i64 %13, 1000
  %15 = zext nneg i32 %1 to i64
  %16 = lshr i64 %14, %15
  %17 = load ptr, ptr %2, align 8, !tbaa !12
  %18 = getelementptr inbounds nuw i8, ptr %17, i64 8
  %19 = load i64, ptr %18, align 8, !tbaa !15
  %20 = load i64, ptr %17, align 8, !tbaa !13
  %21 = sub i64 %19, %20
  %22 = tail call i32 @WPACKET_quic_write_vlint(ptr noundef %0, i64 noundef %11) #12
  %.not46 = icmp eq i32 %22, 0
  br i1 %.not46, label %.loopexit, label %23

23:                                               ; preds = %8
  %24 = tail call i32 @WPACKET_quic_write_vlint(ptr noundef %0, i64 noundef %19) #12
  %.not47 = icmp eq i32 %24, 0
  br i1 %.not47, label %.loopexit, label %25

25:                                               ; preds = %23
  %26 = tail call i32 @WPACKET_quic_write_vlint(ptr noundef %0, i64 noundef %16) #12
  %.not48 = icmp eq i32 %26, 0
  br i1 %.not48, label %.loopexit, label %27

27:                                               ; preds = %25
  %28 = add i64 %6, -1
  %29 = tail call i32 @WPACKET_quic_write_vlint(ptr noundef %0, i64 noundef %28) #12
  %.not49 = icmp eq i32 %29, 0
  br i1 %.not49, label %.loopexit, label %30

30:                                               ; preds = %27
  %31 = tail call i32 @WPACKET_quic_write_vlint(ptr noundef %0, i64 noundef %21) #12
  %.not50 = icmp eq i32 %31, 0
  br i1 %.not50, label %.loopexit, label %.preheader

.preheader:                                       ; preds = %30
  %.not58 = icmp eq i64 %6, 1
  br i1 %.not58, label %._crit_edge, label %.lr.ph

32:                                               ; preds = %.critedge
  %33 = add nuw i64 %.04357, 1
  %exitcond.not = icmp eq i64 %33, %6
  br i1 %exitcond.not, label %._crit_edge, label %.lr.ph, !llvm.loop !18

.lr.ph:                                           ; preds = %.preheader, %32
  %.04357 = phi i64 [ %33, %32 ], [ 1, %.preheader ]
  %34 = load ptr, ptr %2, align 8, !tbaa !12
  %35 = getelementptr %struct.ossl_quic_ack_range_st, ptr %34, i64 %.04357
  %36 = getelementptr i8, ptr %35, i64 -16
  %37 = load i64, ptr %36, align 8, !tbaa !13
  %38 = getelementptr inbounds nuw i8, ptr %35, i64 8
  %39 = load i64, ptr %38, align 8, !tbaa !15
  %40 = add i64 %37, -2
  %41 = sub i64 %40, %39
  %42 = load i64, ptr %35, align 8, !tbaa !13
  %43 = tail call i32 @WPACKET_quic_write_vlint(ptr noundef %0, i64 noundef %41) #12
  %.not55 = icmp eq i32 %43, 0
  br i1 %.not55, label %.loopexit, label %.critedge

.critedge:                                        ; preds = %.lr.ph
  %44 = sub i64 %39, %42
  %45 = tail call i32 @WPACKET_quic_write_vlint(ptr noundef %0, i64 noundef %44) #12
  %.not56 = icmp eq i32 %45, 0
  br i1 %.not56, label %.loopexit, label %32

._crit_edge:                                      ; preds = %32, %.preheader
  %46 = load i8, ptr %4, align 8
  %47 = and i8 %46, 1
  %.not51 = icmp eq i8 %47, 0
  br i1 %.not51, label %60, label %48

48:                                               ; preds = %._crit_edge
  %49 = getelementptr inbounds nuw i8, ptr %2, i64 24
  %50 = load i64, ptr %49, align 8, !tbaa !19
  %51 = tail call i32 @WPACKET_quic_write_vlint(ptr noundef %0, i64 noundef %50) #12
  %.not52 = icmp eq i32 %51, 0
  br i1 %.not52, label %.loopexit, label %52

52:                                               ; preds = %48
  %53 = getelementptr inbounds nuw i8, ptr %2, i64 32
  %54 = load i64, ptr %53, align 8, !tbaa !20
  %55 = tail call i32 @WPACKET_quic_write_vlint(ptr noundef %0, i64 noundef %54) #12
  %.not53 = icmp eq i32 %55, 0
  br i1 %.not53, label %.loopexit, label %56

56:                                               ; preds = %52
  %57 = getelementptr inbounds nuw i8, ptr %2, i64 40
  %58 = load i64, ptr %57, align 8, !tbaa !21
  %59 = tail call i32 @WPACKET_quic_write_vlint(ptr noundef %0, i64 noundef %58) #12
  %.not54 = icmp eq i32 %59, 0
  br i1 %.not54, label %.loopexit, label %60

60:                                               ; preds = %56, %._crit_edge
  br label %.loopexit

.loopexit:                                        ; preds = %.critedge, %.lr.ph, %48, %52, %56, %8, %23, %25, %27, %30, %3, %60
  %.0 = phi i32 [ 1, %60 ], [ 0, %3 ], [ 0, %30 ], [ 0, %27 ], [ 0, %25 ], [ 0, %23 ], [ 0, %8 ], [ 0, %56 ], [ 0, %52 ], [ 0, %48 ], [ 0, %.lr.ph ], [ 0, %.critedge ]
  ret i32 %.0
}